target datalayout = "e-m:e-p270:32:32-p271:32:32-p272:64:64-i64:64-i128:128-f80:128-n8:16:32:64-S128"
target triple = "x86_64-pc-linux-gnu"

%"class.icu_77::UnicodeString" = type { %"class.icu_77::Replaceable", %"union.icu_77::UnicodeString::StackBufferOrFields" }
%"class.icu_77::Replaceable" = type { %"class.icu_77::UObject" }
%"class.icu_77::UObject" = type { ptr }
%"union.icu_77::UnicodeString::StackBufferOrFields" = type { %struct.anon.0, [32 x i8] }
%struct.anon.0 = type { i16, i32, i32, ptr }
%struct.anon = type { i16, [27 x i16] }

; Function Attrs: inlinehint mustprogress nounwind uwtable
define linkonce_odr noundef ptr @_ZNK6icu_7713UnicodeString13getArrayStartEv(ptr noundef nonnull align 8 dereferenceable(64) %0) #2 comdat align 2 {
  %2 = alloca ptr, align 8
  store ptr %0, ptr %2, align 8, !tbaa !41
  %3 = load ptr, ptr %2, align 8
  %4 = getelementptr inbounds nuw %"class.icu_77::UnicodeString", ptr %3, i32 0, i32 1
  %5 = getelementptr inbounds nuw %struct.anon.0, ptr %4, i32 0, i32 0
  %6 = load i16, ptr %5, align 8, !tbaa !65
  %7 = sext i16 %6 to i32
  %8 = and i32 %7, 2
  %9 = icmp ne i32 %8, 0
  br i1 %9, label %10, label %14

10:                                               ; preds = %1
  %11 = getelementptr inbounds nuw %"class.icu_77::UnicodeString", ptr %3, i32 0, i32 1
  %12 = getelementptr inbounds nuw %struct.anon, ptr %11, i32 0, i32 1
  %13 = getelementptr inbounds [27 x i16], ptr %12, i64 0, i64 0
  br label %18

14:                                               ; preds = %1
  %15 = getelementptr inbounds nuw %"class.icu_77::UnicodeString", ptr %3, i32 0, i32 1
  %16 = getelementptr inbounds nuw %struct.anon.0, ptr %15, i32 0, i32 3
  %17 = load ptr, ptr %16, align 8, !tbaa !65
  br label %18

18:                                               ; preds = %14, %10
  %19 = phi ptr [ %13, %10 ], [ %17, %14 ]
  ret ptr %19
}

; Function Attrs: inlinehint mustprogress uwtable
define linkonce_odr noundef zeroext i16 @_ZNK6icu_7713UnicodeString8doCharAtEi(ptr noundef nonnull align 8 dereferenceable(64) %0, i32 noundef %1) #3 comdat align 2 {
  %3 = alloca i16, align 2
  %4 = alloca ptr, align 8
  %5 = alloca i32, align 4
  store ptr %0, ptr %4, align 8, !tbaa !41
  store i32 %1, ptr %5, align 4, !tbaa !14
  %6 = load ptr, ptr %4, align 8
  %7 = load i32, ptr %5, align 4, !tbaa !14
  %8 = call noundef i32 @_ZNK6icu_7713UnicodeString6lengthEv(ptr noundef nonnull align 8 dereferenceable(64) %6)
  %9 = icmp ult i32 %7, %8
  br i1 %9, label %10, label %16

10:                                               ; preds = %2
  %11 = call noundef ptr @_ZNK6icu_7713UnicodeString13getArrayStartEv(ptr noundef nonnull align 8 dereferenceable(64) %6)
  %12 = load i32, ptr %5, align 4, !tbaa !14
  %13 = sext i32 %12 to i64
  %14 = getelementptr inbounds i16, ptr %11, i64 %13
  %15 = load i16, ptr %14, align 2, !tbaa !140
  store i16 %15, ptr %3, align 2
  br label %17

16:                                               ; preds = %2
  store i16 -1, ptr %3, align 2
  br label %17

17:                                               ; preds = %16, %10
  %18 = load i16, ptr %3, align 2
  ret i16 %18
}

; Function Attrs: inlinehint mustprogress nounwind uwtable
define linkonce_odr noundef i32 @_ZNK6icu_7713UnicodeString14getShortLengthEv(ptr noundef nonnull align 8 dereferenceable(64) %0) #2 comdat align 2 {
  %2 = alloca ptr, align 8
  store ptr %0, ptr %2, align 8, !tbaa !41
  %3 = load ptr, ptr %2, align 8
  %4 = getelementptr inbounds nuw %"class.icu_77::UnicodeString", ptr %3, i32 0, i32 1
  %5 = getelementptr inbounds nuw %struct.anon.0, ptr %4, i32 0, i32 0
  %6 = load i16, ptr %5, align 8, !tbaa !65
  %7 = sext i16 %6 to i32
  %8 = ashr i32 %7, 5
  ret i32 %8
}

; Function Attrs: inlinehint mustprogress nounwind uwtable
define linkonce_odr noundef signext i8 @_ZNK6icu_7713UnicodeString14hasShortLengthEv(ptr noundef nonnull align 8 dereferenceable(64) %0) #2 comdat align 2 {
  %2 = alloca ptr, align 8
  store ptr %0, ptr %2, align 8, !tbaa !41
  %3 = load ptr, ptr %2, align 8
  %4 = getelementptr inbounds nuw %"class.icu_77::UnicodeString", ptr %3, i32 0, i32 1
  %5 = getelementptr inbounds nuw %struct.anon.0, ptr %4, i32 0, i32 0
  %6 = load i16, ptr %5, align 8, !tbaa !65
  %7 = sext i16 %6 to i32
  %8 = icmp sge i32 %7, 0
  %9 = zext i1 %8 to i8
  ret i8 %9
}

; Function Attrs: inlinehint mustprogress uwtable
define linkonce_odr noundef zeroext i16 @_ZNK6icu_7713UnicodeString6charAtEi(ptr noundef nonnull align 8 dereferenceable(64) %0, i32 noundef %1) #3 comdat align 2 {
  %3 = alloca ptr, align 8
  %4 = alloca i32, align 4
  store ptr %0, ptr %3, align 8, !tbaa !41
  store i32 %1, ptr %4, align 4, !tbaa !14
  %5 = load ptr, ptr %3, align 8
  %6 = load i32, ptr %4, align 4, !tbaa !14
  %7 = call noundef zeroext i16 @_ZNK6icu_7713UnicodeString8doCharAtEi(ptr noundef nonnull align 8 dereferenceable(64) %5, i32 noundef %6)
  ret i16 %7
}

; Function Attrs: inlinehint mustprogress uwtable
define linkonce_odr noundef i32 @_ZNK6icu_7713UnicodeString6lengthEv(ptr noundef nonnull align 8 dereferenceable(64) %0) #3 comdat align 2 {
  %2 = alloca ptr, align 8
  store ptr %0, ptr %2, align 8, !tbaa !41
  %3 = load ptr, ptr %2, align 8
  %4 = call noundef signext i8 @_ZNK6icu_7713UnicodeString14hasShortLengthEv(ptr noundef nonnull align 8 dereferenceable(64) %3)
  %5 = icmp ne i8 %4, 0
  br i1 %5, label %6, label %8

6:                                                ; preds = %1
  %7 = call noundef i32 @_ZNK6icu_7713UnicodeString14getShortLengthEv(ptr noundef nonnull align 8 dereferenceable(64) %3)
  br label %12

8:                                                ; preds = %1
  %9 = getelementptr inbounds nuw %"class.icu_77::UnicodeString", ptr %3, i32 0, i32 1
  %10 = getelementptr inbounds nuw %struct.anon.0, ptr %9, i32 0, i32 1
  %11 = load i32, ptr %10, align 4, !tbaa !65
  br label %12

12:                                               ; preds = %8, %6
  %13 = phi i32 [ %7, %6 ], [ %11, %8 ]
  ret i32 %13
}

; Function Attrs: mustprogress uwtable
define noundef i32 @_ZN6icu_7718DateIntervalFormat21splitPatternInto2PartERKNS_13UnicodeStringE(ptr noundef nonnull align 8 dereferenceable(64) %0) #1 align 2 {
  %2 = alloca ptr, align 8
  %3 = alloca i8, align 1
  %4 = alloca i16, align 2
  %5 = alloca i32, align 4
  %6 = alloca [58 x i8], align 16
  %7 = alloca i8, align 1
  %8 = alloca i32, align 4
  %9 = alloca i8, align 1
  %10 = alloca i16, align 2
  %11 = alloca i8, align 1
  %12 = alloca i32, align 4
  store ptr %0, ptr %2, align 8, !tbaa !41
  call void @llvm.lifetime.start.p0(i64 1, ptr %3) #12
  store i8 0, ptr %3, align 1, !tbaa !65
  call void @llvm.lifetime.start.p0(i64 2, ptr %4) #12
  store i16 0, ptr %4, align 2, !tbaa !140
  call void @llvm.lifetime.start.p0(i64 4, ptr %5) #12
  store i32 0, ptr %5, align 4, !tbaa !14
  call void @llvm.lifetime.start.p0(i64 58, ptr %6) #12
  call void @llvm.memset.p0.i64(ptr align 16 %6, i8 0, i64 58, i1 false)
  call void @llvm.lifetime.start.p0(i64 1, ptr %7) #12
  store i8 65, ptr %7, align 1, !tbaa !65
  call void @llvm.lifetime.start.p0(i64 4, ptr %8) #12
  call void @llvm.lifetime.start.p0(i64 1, ptr %9) #12
  store i8 0, ptr %9, align 1, !tbaa !65
  store i32 0, ptr %8, align 4, !tbaa !14
  br label %13

13:                                               ; preds = %109, %1
  %14 = load i32, ptr %8, align 4, !tbaa !14
  %15 = load ptr, ptr %2, align 8, !tbaa !41
  %16 = call noundef i32 @_ZNK6icu_7713UnicodeString6lengthEv(ptr noundef nonnull align 8 dereferenceable(64) %15)
  %17 = icmp slt i32 %14, %16
  br i1 %17, label %18, label %112

18:                                               ; preds = %13
  call void @llvm.lifetime.start.p0(i64 2, ptr %10) #12
  %19 = load ptr, ptr %2, align 8, !tbaa !41
  %20 = load i32, ptr %8, align 4, !tbaa !14
  %21 = call noundef zeroext i16 @_ZNK6icu_7713UnicodeString6charAtEi(ptr noundef nonnull align 8 dereferenceable(64) %19, i32 noundef %20)
  store i16 %21, ptr %10, align 2, !tbaa !140
  %22 = load i16, ptr %10, align 2, !tbaa !140
  %23 = zext i16 %22 to i32
  %24 = load i16, ptr %4, align 2, !tbaa !140
  %25 = zext i16 %24 to i32
  %26 = icmp ne i32 %23, %25
  br i1 %26, label %27, label %55

27:                                               ; preds = %18
  %28 = load i32, ptr %5, align 4, !tbaa !14
  %29 = icmp sgt i32 %28, 0
  br i1 %29, label %30, label %55

30:                                               ; preds = %27
  call void @llvm.lifetime.start.p0(i64 1, ptr %11) #12
  %31 = load i16, ptr %4, align 2, !tbaa !140
  %32 = zext i16 %31 to i32
  %33 = load i8, ptr %7, align 1, !tbaa !65
  %34 = sext i8 %33 to i32
  %35 = sub nsw i32 %32, %34
  %36 = sext i32 %35 to i64
  %37 = getelementptr inbounds [58 x i8], ptr %6, i64 0, i64 %36
  %38 = load i8, ptr %37, align 1, !tbaa !65
  store i8 %38, ptr %11, align 1, !tbaa !65
  %39 = load i8, ptr %11, align 1, !tbaa !65
  %40 = sext i8 %39 to i32
  %41 = icmp eq i32 %40, 0
  br i1 %41, label %42, label %50

42:                                               ; preds = %30
  %43 = load i16, ptr %4, align 2, !tbaa !140
  %44 = zext i16 %43 to i32
  %45 = load i8, ptr %7, align 1, !tbaa !65
  %46 = sext i8 %45 to i32
  %47 = sub nsw i32 %44, %46
  %48 = sext i32 %47 to i64
  %49 = getelementptr inbounds [58 x i8], ptr %6, i64 0, i64 %48
  store i8 1, ptr %49, align 1, !tbaa !65
  br label %51

50:                                               ; preds = %30
  store i8 1, ptr %9, align 1, !tbaa !65
  store i32 2, ptr %12, align 4
  br label %52

51:                                               ; preds = %42
  store i32 0, ptr %5, align 4, !tbaa !14
  store i32 0, ptr %12, align 4
  br label %52

52:                                               ; preds = %51, %50
  call void @llvm.lifetime.end.p0(i64 1, ptr %11) #12
  %53 = load i32, ptr %12, align 4
  switch i32 %53, label %106 [
    i32 0, label %54
  ]

54:                                               ; preds = %52
  br label %55

55:                                               ; preds = %54, %27, %18
  %56 = load i16, ptr %10, align 2, !tbaa !140
  %57 = zext i16 %56 to i32
  %58 = icmp eq i32 %57, 39
  br i1 %58, label %59, label %81

59:                                               ; preds = %55
  %60 = load i32, ptr %8, align 4, !tbaa !14
  %61 = add nsw i32 %60, 1
  %62 = load ptr, ptr %2, align 8, !tbaa !41
  %63 = call noundef i32 @_ZNK6icu_7713UnicodeString6lengthEv(ptr noundef nonnull align 8 dereferenceable(64) %62)
  %64 = icmp slt i32 %61, %63
  br i1 %64, label %65, label %75

65:                                               ; preds = %59
  %66 = load ptr, ptr %2, align 8, !tbaa !41
  %67 = load i32, ptr %8, align 4, !tbaa !14
  %68 = add nsw i32 %67, 1
  %69 = call noundef zeroext i16 @_ZNK6icu_7713UnicodeString6charAtEi(ptr noundef nonnull align 8 dereferenceable(64) %66, i32 noundef %68)
  %70 = zext i16 %69 to i32
  %71 = icmp eq i32 %70, 39
  br i1 %71, label %72, label %75

72:                                               ; preds = %65
  %73 = load i32, ptr %8, align 4, !tbaa !14
  %74 = add nsw i32 %73, 1
  store i32 %74, ptr %8, align 4, !tbaa !14
  br label %80

75:                                               ; preds = %65, %59
  %76 = load i8, ptr %3, align 1, !tbaa !65
  %77 = icmp ne i8 %76, 0
  %78 = xor i1 %77, true
  %79 = zext i1 %78 to i8
  store i8 %79, ptr %3, align 1, !tbaa !65
  br label %80

80:                                               ; preds = %75, %72
  br label %105

81:                                               ; preds = %55
  %82 = load i8, ptr %3, align 1, !tbaa !65
  %83 = icmp ne i8 %82, 0
  br i1 %83, label %104, label %84

84:                                               ; preds = %81
  %85 = load i16, ptr %10, align 2, !tbaa !140
  %86 = zext i16 %85 to i32
  %87 = icmp sge i32 %86, 97
  br i1 %87, label %88, label %92

88:                                               ; preds = %84
  %89 = load i16, ptr %10, align 2, !tbaa !140
  %90 = zext i16 %89 to i32
  %91 = icmp sle i32 %90, 122
  br i1 %91, label %100, label %92

92:                                               ; preds = %88, %84
  %93 = load i16, ptr %10, align 2, !tbaa !140
  %94 = zext i16 %93 to i32
  %95 = icmp sge i32 %94, 65
  br i1 %95, label %96, label %104

96:                                               ; preds = %92
  %97 = load i16, ptr %10, align 2, !tbaa !140
  %98 = zext i16 %97 to i32
  %99 = icmp sle i32 %98, 90
  br i1 %99, label %100, label %104

100:                                              ; preds = %96, %88
  %101 = load i16, ptr %10, align 2, !tbaa !140
  store i16 %101, ptr %4, align 2, !tbaa !140
  %102 = load i32, ptr %5, align 4, !tbaa !14
  %103 = add nsw i32 %102, 1
  store i32 %103, ptr %5, align 4, !tbaa !14
  br label %104

104:                                              ; preds = %100, %96, %92, %81
  br label %105

105:                                              ; preds = %104, %80
  store i32 0, ptr %12, align 4
  br label %106

106:                                              ; preds = %105, %52
  call void @llvm.lifetime.end.p0(i64 2, ptr %10) #12
  %107 = load i32, ptr %12, align 4
  switch i32 %107, label %136 [
    i32 0, label %108
    i32 2, label %112
  ]

108:                                              ; preds = %106
  br label %109

109:                                              ; preds = %108
  %110 = load i32, ptr %8, align 4, !tbaa !14
  %111 = add nsw i32 %110, 1
  store i32 %111, ptr %8, align 4, !tbaa !14
  br label %13, !llvm.loop !162

112:                                              ; preds = %106, %13
  %113 = load i32, ptr %5, align 4, !tbaa !14
  %114 = icmp sgt i32 %113, 0
  br i1 %114, label %115, label %132

115:                                              ; preds = %112
  %116 = load i8, ptr %9, align 1, !tbaa !65
  %117 = sext i8 %116 to i32
  %118 = icmp eq i32 %117, 0
  br i1 %118, label %119, label %132

119:                                              ; preds = %115
  %120 = load i16, ptr %4, align 2, !tbaa !140
  %121 = zext i16 %120 to i32
  %122 = load i8, ptr %7, align 1, !tbaa !65
  %123 = sext i8 %122 to i32
  %124 = sub nsw i32 %121, %123
  %125 = sext i32 %124 to i64
  %126 = getelementptr inbounds [58 x i8], ptr %6, i64 0, i64 %125
  %127 = load i8, ptr %126, align 1, !tbaa !65
  %128 = sext i8 %127 to i32
  %129 = icmp eq i32 %128, 0
  br i1 %129, label %130, label %131

130:                                              ; preds = %119
  store i32 0, ptr %5, align 4, !tbaa !14
  br label %131

131:                                              ; preds = %130, %119
  br label %132

132:                                              ; preds = %131, %115, %112
  %133 = load i32, ptr %8, align 4, !tbaa !14
  %134 = load i32, ptr %5, align 4, !tbaa !14
  %135 = sub nsw i32 %133, %134
  store i32 1, ptr %12, align 4
  call void @llvm.lifetime.end.p0(i64 1, ptr %9) #12
  call void @llvm.lifetime.end.p0(i64 4, ptr %8) #12
  call void @llvm.lifetime.end.p0(i64 1, ptr %7) #12
  call void @llvm.lifetime.end.p0(i64 58, ptr %6) #12
  call void @llvm.lifetime.end.p0(i64 4, ptr %5) #12
  call void @llvm.lifetime.end.p0(i64 2, ptr %4) #12
  call void @llvm.lifetime.end.p0(i64 1, ptr %3) #12
  ret i32 %135

136:                                              ; preds = %106
  unreachable
}