; Function Attrs: mustprogress nofree norecurse nosync nounwind willreturn memory(read, inaccessiblemem: none) uwtable
define noundef i32 @_ZN6icu_7718DateIntervalFormat21splitPatternInto2PartERKNS_13UnicodeStringE(ptr noundef nonnull readonly align 8 captures(none) dereferenceable(64) %0) local_unnamed_addr #15 align 2 {
  %2 = alloca [58 x i8], align 16
  call void @llvm.lifetime.start.p0(i64 58, ptr nonnull %2) #19
  call void @llvm.memset.p0.i64(ptr noundef nonnull align 16 dereferenceable(58) %2, i8 0, i64 58, i1 false)
  %3 = getelementptr inbounds nuw i8, ptr %0, i64 8
  %4 = load i16, ptr %3, align 8, !tbaa !25
  %5 = icmp slt i16 %4, 0
  %6 = ashr i16 %4, 5
  %7 = sext i16 %6 to i32
  %8 = getelementptr inbounds nuw i8, ptr %0, i64 12
  %9 = load i32, ptr %8, align 4
  %10 = select i1 %5, i32 %9, i32 %7
  %11 = icmp sgt i32 %10, 0
  br i1 %11, label %.lr.ph, label %.thread89

.lr.ph:                                           ; preds = %1
  %12 = and i16 %4, 2
  %.not.i.i.i = icmp eq i16 %12, 0
  %13 = getelementptr inbounds nuw i8, ptr %0, i64 10
  %14 = getelementptr inbounds nuw i8, ptr %0, i64 24
  %15 = load ptr, ptr %14, align 8
  %16 = select i1 %.not.i.i.i, ptr %15, ptr %13
  br label %17

17:                                               ; preds = %.lr.ph, %47
  %.044104 = phi i8 [ 0, %.lr.ph ], [ %.145.ph, %47 ]
  %.046103 = phi i16 [ 0, %.lr.ph ], [ %.248.ph, %47 ]
  %.053102 = phi i32 [ 0, %.lr.ph ], [ %48, %47 ]
  %.057101 = phi i32 [ 0, %.lr.ph ], [ %.461.ph, %47 ]
  %18 = icmp ult i32 %.053102, %10
  br i1 %18, label %19, label %_ZNK6icu_7713UnicodeString6charAtEi.exit

19:                                               ; preds = %17
  %20 = sext i32 %.053102 to i64
  %21 = getelementptr inbounds i16, ptr %16, i64 %20
  %22 = load i16, ptr %21, align 2, !tbaa !81
  br label %_ZNK6icu_7713UnicodeString6charAtEi.exit

_ZNK6icu_7713UnicodeString6charAtEi.exit:         ; preds = %17, %19
  %.0.i.i = phi i16 [ %22, %19 ], [ -1, %17 ]
  %23 = icmp ne i16 %.0.i.i, %.046103
  %24 = icmp sgt i32 %.057101, 0
  %or.cond = select i1 %23, i1 %24, i1 false
  br i1 %or.cond, label %25, label %31

25:                                               ; preds = %_ZNK6icu_7713UnicodeString6charAtEi.exit
  %26 = zext i16 %.046103 to i64
  %27 = add nsw i64 %26, -65
  %28 = getelementptr inbounds [58 x i8], ptr %2, i64 0, i64 %27
  %29 = load i8, ptr %28, align 1, !tbaa !25
  %30 = icmp eq i8 %29, 0
  br i1 %30, label %.thread, label %.thread89

.thread:                                          ; preds = %25
  store i8 1, ptr %28, align 1, !tbaa !25
  br label %31

31:                                               ; preds = %.thread, %_ZNK6icu_7713UnicodeString6charAtEi.exit
  %.259 = phi i32 [ %.057101, %_ZNK6icu_7713UnicodeString6charAtEi.exit ], [ 0, %.thread ]
  %32 = icmp eq i16 %.0.i.i, 39
  br i1 %32, label %33, label %42

33:                                               ; preds = %31
  %34 = add nsw i32 %.053102, 1
  %35 = icmp slt i32 %34, %10
  %36 = icmp ult i32 %34, %10
  %or.cond96 = and i1 %35, %36
  br i1 %or.cond96, label %_ZNK6icu_7713UnicodeString6charAtEi.exit71, label %_ZNK6icu_7713UnicodeString6charAtEi.exit71.thread

_ZNK6icu_7713UnicodeString6charAtEi.exit71:       ; preds = %33
  %37 = sext i32 %34 to i64
  %38 = getelementptr inbounds i16, ptr %16, i64 %37
  %39 = load i16, ptr %38, align 2, !tbaa !81
  %40 = icmp eq i16 %39, 39
  br i1 %40, label %47, label %_ZNK6icu_7713UnicodeString6charAtEi.exit71.thread

_ZNK6icu_7713UnicodeString6charAtEi.exit71.thread: ; preds = %_ZNK6icu_7713UnicodeString6charAtEi.exit71, %33
  %.not65 = icmp eq i8 %.044104, 0
  %41 = zext i1 %.not65 to i8
  br label %47

42:                                               ; preds = %31
  %.not = icmp eq i8 %.044104, 0
  br i1 %.not, label %43, label %47

43:                                               ; preds = %42
  %44 = and i16 %.0.i.i, -33
  %45 = add i16 %44, -65
  %or.cond66 = icmp ult i16 %45, 26
  %46 = zext i1 %or.cond66 to i32
  %spec.select67 = add nsw i32 %.259, %46
  %spec.select68 = select i1 %or.cond66, i16 %.0.i.i, i16 %.046103
  br label %47

47:                                               ; preds = %_ZNK6icu_7713UnicodeString6charAtEi.exit71, %42, %_ZNK6icu_7713UnicodeString6charAtEi.exit71.thread, %43
  %.461.ph = phi i32 [ %spec.select67, %43 ], [ %.259, %_ZNK6icu_7713UnicodeString6charAtEi.exit71 ], [ %.259, %42 ], [ %.259, %_ZNK6icu_7713UnicodeString6charAtEi.exit71.thread ]
  %.255.ph = phi i32 [ %.053102, %43 ], [ %34, %_ZNK6icu_7713UnicodeString6charAtEi.exit71 ], [ %.053102, %42 ], [ %.053102, %_ZNK6icu_7713UnicodeString6charAtEi.exit71.thread ]
  %.248.ph = phi i16 [ %spec.select68, %43 ], [ %.046103, %_ZNK6icu_7713UnicodeString6charAtEi.exit71 ], [ %.046103, %42 ], [ %.046103, %_ZNK6icu_7713UnicodeString6charAtEi.exit71.thread ]
  %.145.ph = phi i8 [ 0, %43 ], [ %.044104, %_ZNK6icu_7713UnicodeString6charAtEi.exit71 ], [ 1, %42 ], [ %41, %_ZNK6icu_7713UnicodeString6charAtEi.exit71.thread ]
  %48 = add nsw i32 %.255.ph, 1
  %49 = icmp slt i32 %48, %10
  br i1 %49, label %17, label %._crit_edge, !llvm.loop !92

._crit_edge:                                      ; preds = %47
  %50 = icmp sgt i32 %.461.ph, 0
  br i1 %50, label %51, label %.thread89

51:                                               ; preds = %._crit_edge
  %52 = zext i16 %.248.ph to i64
  %53 = add nsw i64 %52, -65
  %54 = getelementptr inbounds [58 x i8], ptr %2, i64 0, i64 %53
  %55 = load i8, ptr %54, align 1, !tbaa !25
  %56 = icmp eq i8 %55, 0
  %spec.select = select i1 %56, i32 0, i32 %.461.ph
  br label %.thread89

.thread89:                                        ; preds = %25, %1, %51, %._crit_edge
  %.05399 = phi i32 [ %48, %._crit_edge ], [ %48, %51 ], [ 0, %1 ], [ %.053102, %25 ]
  %.6 = phi i32 [ %.461.ph, %._crit_edge ], [ %spec.select, %51 ], [ 0, %1 ], [ %.057101, %25 ]
  %57 = sub nsw i32 %.05399, %.6
  call void @llvm.lifetime.end.p0(i64 58, ptr nonnull %2) #19
  ret i32 %57
}